target datalayout = "e-m:e-p270:32:32-p271:32:32-p272:64:64-i64:64-i128:128-f80:128-n8:16:32:64-S128"
target triple = "x86_64-pc-linux-gnu"

%struct.Vec_Int_t_ = type { i32, i32, ptr }
%struct.Vec_Wec_t_ = type { i32, i32, ptr }

; Function Attrs: nounwind uwtable
define internal ptr @Vec_WecEntryLast(ptr noundef %0) #0 {
  %2 = alloca ptr, align 8
  store ptr %0, ptr %2, align 8
  %3 = load ptr, ptr %2, align 8
  %4 = getelementptr inbounds %struct.Vec_Wec_t_, ptr %3, i32 0, i32 2
  %5 = load ptr, ptr %4, align 8
  %6 = load ptr, ptr %2, align 8
  %7 = getelementptr inbounds %struct.Vec_Wec_t_, ptr %6, i32 0, i32 1
  %8 = load i32, ptr %7, align 4
  %9 = sext i32 %8 to i64
  %10 = getelementptr inbounds %struct.Vec_Int_t_, ptr %5, i64 %9
  %11 = getelementptr inbounds %struct.Vec_Int_t_, ptr %10, i64 -1
  ret ptr %11
}

; Function Attrs: nounwind uwtable
define internal void @Vec_WecGrow(ptr noundef %0, i32 noundef %1) #0 {
  %3 = alloca ptr, align 8
  %4 = alloca i32, align 4
  store ptr %0, ptr %3, align 8
  store i32 %1, ptr %4, align 4
  %5 = load ptr, ptr %3, align 8
  %6 = getelementptr inbounds %struct.Vec_Wec_t_, ptr %5, i32 0, i32 0
  %7 = load i32, ptr %6, align 8
  %8 = load i32, ptr %4, align 4
  %9 = icmp sge i32 %7, %8
  br i1 %9, label %10, label %11

10:                                               ; preds = %2
  br label %51

11:                                               ; preds = %2
  %12 = load ptr, ptr %3, align 8
  %13 = getelementptr inbounds %struct.Vec_Wec_t_, ptr %12, i32 0, i32 2
  %14 = load ptr, ptr %13, align 8
  %15 = icmp ne ptr %14, null
  br i1 %15, label %16, label %24

16:                                               ; preds = %11
  %17 = load ptr, ptr %3, align 8
  %18 = getelementptr inbounds %struct.Vec_Wec_t_, ptr %17, i32 0, i32 2
  %19 = load ptr, ptr %18, align 8
  %20 = load i32, ptr %4, align 4
  %21 = sext i32 %20 to i64
  %22 = mul i64 16, %21
  %23 = call ptr @realloc(ptr noundef %19, i64 noundef %22) #13
  br label %29

24:                                               ; preds = %11
  %25 = load i32, ptr %4, align 4
  %26 = sext i32 %25 to i64
  %27 = mul i64 16, %26
  %28 = call noalias ptr @malloc(i64 noundef %27) #10
  br label %29

29:                                               ; preds = %24, %16
  %30 = phi ptr [ %23, %16 ], [ %28, %24 ]
  %31 = load ptr, ptr %3, align 8
  %32 = getelementptr inbounds %struct.Vec_Wec_t_, ptr %31, i32 0, i32 2
  store ptr %30, ptr %32, align 8
  %33 = load ptr, ptr %3, align 8
  %34 = getelementptr inbounds %struct.Vec_Wec_t_, ptr %33, i32 0, i32 2
  %35 = load ptr, ptr %34, align 8
  %36 = load ptr, ptr %3, align 8
  %37 = getelementptr inbounds %struct.Vec_Wec_t_, ptr %36, i32 0, i32 0
  %38 = load i32, ptr %37, align 8
  %39 = sext i32 %38 to i64
  %40 = getelementptr inbounds %struct.Vec_Int_t_, ptr %35, i64 %39
  %41 = load i32, ptr %4, align 4
  %42 = load ptr, ptr %3, align 8
  %43 = getelementptr inbounds %struct.Vec_Wec_t_, ptr %42, i32 0, i32 0
  %44 = load i32, ptr %43, align 8
  %45 = sub nsw i32 %41, %44
  %46 = sext i32 %45 to i64
  %47 = mul i64 16, %46
  call void @llvm.memset.p0.i64(ptr align 8 %40, i8 0, i64 %47, i1 false)
  %48 = load i32, ptr %4, align 4
  %49 = load ptr, ptr %3, align 8
  %50 = getelementptr inbounds %struct.Vec_Wec_t_, ptr %49, i32 0, i32 0
  store i32 %48, ptr %50, align 8
  br label %51

51:                                               ; preds = %29, %10
  ret void
}

; Function Attrs: nounwind uwtable
define internal ptr @Vec_WecPushLevel(ptr noundef %0) #0 {
  %2 = alloca ptr, align 8
  store ptr %0, ptr %2, align 8
  %3 = load ptr, ptr %2, align 8
  %4 = getelementptr inbounds %struct.Vec_Wec_t_, ptr %3, i32 0, i32 1
  %5 = load i32, ptr %4, align 4
  %6 = load ptr, ptr %2, align 8
  %7 = getelementptr inbounds %struct.Vec_Wec_t_, ptr %6, i32 0, i32 0
  %8 = load i32, ptr %7, align 8
  %9 = icmp eq i32 %5, %8
  br i1 %9, label %10, label %24

10:                                               ; preds = %1
  %11 = load ptr, ptr %2, align 8
  %12 = getelementptr inbounds %struct.Vec_Wec_t_, ptr %11, i32 0, i32 0
  %13 = load i32, ptr %12, align 8
  %14 = icmp slt i32 %13, 16
  br i1 %14, label %15, label %17

15:                                               ; preds = %10
  %16 = load ptr, ptr %2, align 8
  call void @Vec_WecGrow(ptr noundef %16, i32 noundef 16)
  br label %23

17:                                               ; preds = %10
  %18 = load ptr, ptr %2, align 8
  %19 = load ptr, ptr %2, align 8
  %20 = getelementptr inbounds %struct.Vec_Wec_t_, ptr %19, i32 0, i32 0
  %21 = load i32, ptr %20, align 8
  %22 = mul nsw i32 2, %21
  call void @Vec_WecGrow(ptr noundef %18, i32 noundef %22)
  br label %23

23:                                               ; preds = %17, %15
  br label %24

24:                                               ; preds = %23, %1
  %25 = load ptr, ptr %2, align 8
  %26 = getelementptr inbounds %struct.Vec_Wec_t_, ptr %25, i32 0, i32 1
  %27 = load i32, ptr %26, align 4
  %28 = add nsw i32 %27, 1
  store i32 %28, ptr %26, align 4
  %29 = load ptr, ptr %2, align 8
  %30 = call ptr @Vec_WecEntryLast(ptr noundef %29)
  ret ptr %30
}