; Function Attrs: mustprogress nounwind willreturn uwtable
define internal fastcc nonnull ptr @Vec_WecPushLevel(ptr noundef captures(none) %0) unnamed_addr #2 {
  %2 = getelementptr inbounds nuw i8, ptr %0, i64 4
  %3 = load i32, ptr %2, align 4
  %4 = load i32, ptr %0, align 8
  %5 = icmp eq i32 %3, %4
  br i1 %5, label %6, label %.Vec_WecGrow.exit12_crit_edge

.Vec_WecGrow.exit12_crit_edge:                    ; preds = %1
  %.phi.trans.insert = getelementptr i8, ptr %0, i64 8
  %.val8.pre = load ptr, ptr %.phi.trans.insert, align 8
  br label %Vec_WecGrow.exit12

6:                                                ; preds = %1
  %7 = icmp slt i32 %3, 16
  br i1 %7, label %8, label %22

8:                                                ; preds = %6
  %9 = getelementptr inbounds nuw i8, ptr %0, i64 8
  %10 = load ptr, ptr %9, align 8
  %.not13.i = icmp eq ptr %10, null
  br i1 %.not13.i, label %13, label %11

11:                                               ; preds = %8
  %12 = tail call dereferenceable_or_null(256) ptr @realloc(ptr noundef nonnull %10, i64 noundef 256) #24
  %.pre.i = load i32, ptr %0, align 8
  br label %Vec_WecGrow.exit

13:                                               ; preds = %8
  %14 = tail call noalias dereferenceable_or_null(256) ptr @malloc(i64 noundef 256) #25
  br label %Vec_WecGrow.exit

Vec_WecGrow.exit:                                 ; preds = %11, %13
  %15 = phi i32 [ %.pre.i, %11 ], [ %3, %13 ]
  %16 = phi ptr [ %12, %11 ], [ %14, %13 ]
  store ptr %16, ptr %9, align 8
  %17 = sext i32 %15 to i64
  %18 = getelementptr inbounds %struct.Vec_Int_t_, ptr %16, i64 %17
  %19 = sub nsw i32 16, %15
  %20 = sext i32 %19 to i64
  %21 = shl nsw i64 %20, 4
  tail call void @llvm.memset.p0.i64(ptr align 8 %18, i8 0, i64 %21, i1 false)
  store i32 16, ptr %0, align 8
  br label %Vec_WecGrow.exit12

22:                                               ; preds = %6
  %23 = shl nuw nsw i32 %3, 1
  %24 = getelementptr inbounds nuw i8, ptr %0, i64 8
  %25 = load ptr, ptr %24, align 8
  %.not13.i10 = icmp eq ptr %25, null
  %26 = zext nneg i32 %23 to i64
  %27 = shl nuw nsw i64 %26, 4
  br i1 %.not13.i10, label %30, label %28

28:                                               ; preds = %22
  %29 = tail call ptr @realloc(ptr noundef nonnull %25, i64 noundef %27) #24
  %.pre.i11 = load i32, ptr %0, align 8
  br label %32

30:                                               ; preds = %22
  %31 = tail call noalias ptr @malloc(i64 noundef %27) #25
  br label %32

32:                                               ; preds = %30, %28
  %33 = phi i32 [ %.pre.i11, %28 ], [ %3, %30 ]
  %34 = phi ptr [ %29, %28 ], [ %31, %30 ]
  store ptr %34, ptr %24, align 8
  %35 = sext i32 %33 to i64
  %36 = getelementptr inbounds %struct.Vec_Int_t_, ptr %34, i64 %35
  %37 = sub nsw i32 %23, %33
  %38 = sext i32 %37 to i64
  %39 = shl nsw i64 %38, 4
  tail call void @llvm.memset.p0.i64(ptr align 8 %36, i8 0, i64 %39, i1 false)
  store i32 %23, ptr %0, align 8
  br label %Vec_WecGrow.exit12

Vec_WecGrow.exit12:                               ; preds = %.Vec_WecGrow.exit12_crit_edge, %32, %Vec_WecGrow.exit
  %.val8 = phi ptr [ %.val8.pre, %.Vec_WecGrow.exit12_crit_edge ], [ %34, %32 ], [ %16, %Vec_WecGrow.exit ]
  %40 = load i32, ptr %2, align 4
  %41 = add nsw i32 %40, 1
  store i32 %41, ptr %2, align 4
  %42 = sext i32 %41 to i64
  %43 = getelementptr inbounds %struct.Vec_Int_t_, ptr %.val8, i64 %42
  %44 = getelementptr inbounds i8, ptr %43, i64 -16
  ret ptr %44
}